target datalayout = "e-m:e-p270:32:32-p271:32:32-p272:64:64-i64:64-i128:128-f80:128-n8:16:32:64-S128"
target triple = "x86_64-pc-linux-gnu"

%union.ListCell = type { ptr }
%struct.Query = type { i32, i32, i32, i64, i8, ptr, i32, i8, i8, i8, i8, i8, i8, i8, i8, i8, i8, i8, ptr, ptr, ptr, ptr, ptr, i32, ptr, ptr, i32, ptr, ptr, ptr, ptr, ptr, i8, ptr, ptr, ptr, ptr, ptr, ptr, ptr, i32, ptr, ptr, ptr, ptr, i32, i32 }
%struct.List = type { i32, i32, i32, ptr, [0 x %union.ListCell] }
%struct.RangeTblEntry = type { i32, ptr, ptr, i32, i32, i8, i8, i32, i32, ptr, ptr, i8, i32, i32, ptr, ptr, ptr, ptr, ptr, i8, ptr, ptr, ptr, i32, i8, ptr, ptr, ptr, ptr, double, ptr, i8, i8, ptr }
%struct.Node = type { i32 }
%struct.Expr = type { i32 }
%struct.PlannerInfo = type { i32, ptr, ptr, i32, ptr, ptr, ptr, ptr, i32, ptr, ptr, ptr, ptr, ptr, ptr, ptr, ptr, i32, ptr, ptr, ptr, ptr, ptr, i8, ptr, ptr, ptr, ptr, ptr, i32, ptr, ptr, ptr, ptr, ptr, ptr, ptr, i32, ptr, ptr, ptr, i32, ptr, ptr, ptr, ptr, ptr, ptr, [8 x ptr], [8 x ptr], ptr, ptr, ptr, ptr, ptr, ptr, ptr, double, double, double, i32, i8, i8, i8, i8, i8, i8, i8, i32, ptr, ptr, i32, i8, i8, i32, ptr, ptr, ptr, ptr, ptr, ptr, i8, ptr }
%struct.PlannerGlobal = type { i32, ptr, ptr, ptr, ptr, ptr, ptr, ptr, ptr, ptr, ptr, ptr, ptr, ptr, ptr, ptr, ptr, i32, i32, i32, i8, i8, i8, i8, i8, ptr }
%struct.PlaceHolderVar = type { %struct.Expr, ptr, ptr, ptr, i32, i32 }
%struct.find_dependent_phvs_context = type { ptr, i32 }

; Function Attrs: inlinehint nounwind uwtable
define internal ptr @list_nth_cell(ptr noundef %0, i32 noundef %1) #3 {
  %3 = alloca ptr, align 8
  %4 = alloca i32, align 4
  store ptr %0, ptr %3, align 8
  store i32 %1, ptr %4, align 4
  %5 = load ptr, ptr %3, align 8
  %6 = getelementptr inbounds nuw %struct.List, ptr %5, i32 0, i32 3
  %7 = load ptr, ptr %6, align 8
  %8 = load i32, ptr %4, align 4
  %9 = sext i32 %8 to i64
  %10 = getelementptr inbounds %union.ListCell, ptr %7, i64 %9
  ret ptr %10
}

; Function Attrs: inlinehint nounwind uwtable
define internal ptr @list_nth(ptr noundef %0, i32 noundef %1) #3 {
  %3 = alloca ptr, align 8
  %4 = alloca i32, align 4
  store ptr %0, ptr %3, align 8
  store i32 %1, ptr %4, align 4
  %5 = load ptr, ptr %3, align 8
  %6 = load i32, ptr %4, align 4
  %7 = call ptr @list_nth_cell(ptr noundef %5, i32 noundef %6)
  %8 = load ptr, ptr %7, align 8
  ret ptr %8
}

; Function Attrs: nounwind uwtable
define internal zeroext i1 @find_dependent_phvs_walker(ptr noundef %0, ptr noundef %1) #0 {
  %3 = alloca i1, align 1
  %4 = alloca ptr, align 8
  %5 = alloca ptr, align 8
  %6 = alloca ptr, align 8
  %7 = alloca i32, align 4
  %8 = alloca i8, align 1
  store ptr %0, ptr %4, align 8
  store ptr %1, ptr %5, align 8
  %9 = load ptr, ptr %4, align 8
  %10 = icmp eq ptr %9, null
  br i1 %10, label %11, label %12

11:                                               ; preds = %2
  store i1 false, ptr %3, align 1
  br label %63

12:                                               ; preds = %2
  %13 = load ptr, ptr %4, align 8
  %14 = getelementptr inbounds nuw %struct.Node, ptr %13, i32 0, i32 0
  %15 = load i32, ptr %14, align 4
  %16 = icmp eq i32 %15, 318
  br i1 %16, label %17, label %39

17:                                               ; preds = %12
  call void @llvm.lifetime.start.p0(i64 8, ptr %6) #8
  %18 = load ptr, ptr %4, align 8
  store ptr %18, ptr %6, align 8
  %19 = load ptr, ptr %6, align 8
  %20 = getelementptr inbounds nuw %struct.PlaceHolderVar, ptr %19, i32 0, i32 5
  %21 = load i32, ptr %20, align 4
  %22 = load ptr, ptr %5, align 8
  %23 = getelementptr inbounds nuw %struct.find_dependent_phvs_context, ptr %22, i32 0, i32 1
  %24 = load i32, ptr %23, align 8
  %25 = icmp eq i32 %21, %24
  br i1 %25, label %26, label %35

26:                                               ; preds = %17
  %27 = load ptr, ptr %5, align 8
  %28 = getelementptr inbounds nuw %struct.find_dependent_phvs_context, ptr %27, i32 0, i32 0
  %29 = load ptr, ptr %28, align 8
  %30 = load ptr, ptr %6, align 8
  %31 = getelementptr inbounds nuw %struct.PlaceHolderVar, ptr %30, i32 0, i32 2
  %32 = load ptr, ptr %31, align 8
  %33 = call zeroext i1 @bms_equal(ptr noundef %29, ptr noundef %32)
  br i1 %33, label %34, label %35

34:                                               ; preds = %26
  store i1 true, ptr %3, align 1
  store i32 1, ptr %7, align 4
  br label %36

35:                                               ; preds = %26, %17
  store i32 0, ptr %7, align 4
  br label %36

36:                                               ; preds = %35, %34
  call void @llvm.lifetime.end.p0(i64 8, ptr %6) #8
  %37 = load i32, ptr %7, align 4
  switch i32 %37, label %65 [
    i32 0, label %38
    i32 1, label %63
  ]

38:                                               ; preds = %36
  br label %39

39:                                               ; preds = %38, %12
  %40 = load ptr, ptr %4, align 8
  %41 = getelementptr inbounds nuw %struct.Node, ptr %40, i32 0, i32 0
  %42 = load i32, ptr %41, align 4
  %43 = icmp eq i32 %42, 67
  br i1 %43, label %44, label %59

44:                                               ; preds = %39
  call void @llvm.lifetime.start.p0(i64 1, ptr %8) #8
  %45 = load ptr, ptr %5, align 8
  %46 = getelementptr inbounds nuw %struct.find_dependent_phvs_context, ptr %45, i32 0, i32 1
  %47 = load i32, ptr %46, align 8
  %48 = add i32 %47, 1
  store i32 %48, ptr %46, align 8
  %49 = load ptr, ptr %4, align 8
  %50 = load ptr, ptr %5, align 8
  %51 = call zeroext i1 @query_tree_walker_impl(ptr noundef %49, ptr noundef @find_dependent_phvs_walker, ptr noundef %50, i32 noundef 0)
  %52 = zext i1 %51 to i8
  store i8 %52, ptr %8, align 1
  %53 = load ptr, ptr %5, align 8
  %54 = getelementptr inbounds nuw %struct.find_dependent_phvs_context, ptr %53, i32 0, i32 1
  %55 = load i32, ptr %54, align 8
  %56 = add i32 %55, -1
  store i32 %56, ptr %54, align 8
  %57 = load i8, ptr %8, align 1, !range !7, !noundef !8
  %58 = trunc i8 %57 to i1
  store i1 %58, ptr %3, align 1
  store i32 1, ptr %7, align 4
  call void @llvm.lifetime.end.p0(i64 1, ptr %8) #8
  br label %63

59:                                               ; preds = %39
  %60 = load ptr, ptr %4, align 8
  %61 = load ptr, ptr %5, align 8
  %62 = call zeroext i1 @expression_tree_walker_impl(ptr noundef %60, ptr noundef @find_dependent_phvs_walker, ptr noundef %61)
  store i1 %62, ptr %3, align 1
  br label %63

63:                                               ; preds = %59, %44, %36, %11
  %64 = load i1, ptr %3, align 1
  ret i1 %64

65:                                               ; preds = %36
  unreachable
}

; Function Attrs: nounwind uwtable
define internal zeroext i1 @find_dependent_phvs_in_jointree(ptr noundef %0, ptr noundef %1, i32 noundef %2) #0 {
  %4 = alloca i1, align 1
  %5 = alloca ptr, align 8
  %6 = alloca ptr, align 8
  %7 = alloca i32, align 4
  %8 = alloca %struct.find_dependent_phvs_context, align 8
  %9 = alloca ptr, align 8
  %10 = alloca i32, align 4
  %11 = alloca i32, align 4
  %12 = alloca ptr, align 8
  store ptr %0, ptr %5, align 8
  store ptr %1, ptr %6, align 8
  store i32 %2, ptr %7, align 4
  call void @llvm.lifetime.start.p0(i64 16, ptr %8) #8
  call void @llvm.lifetime.start.p0(i64 8, ptr %9) #8
  call void @llvm.lifetime.start.p0(i64 4, ptr %10) #8
  %13 = load ptr, ptr %5, align 8
  %14 = getelementptr inbounds nuw %struct.PlannerInfo, ptr %13, i32 0, i32 2
  %15 = load ptr, ptr %14, align 8
  %16 = getelementptr inbounds nuw %struct.PlannerGlobal, ptr %15, i32 0, i32 17
  %17 = load i32, ptr %16, align 8
  %18 = icmp eq i32 %17, 0
  br i1 %18, label %19, label %20

19:                                               ; preds = %3
  store i1 false, ptr %4, align 1
  store i32 1, ptr %11, align 4
  br label %58

20:                                               ; preds = %3
  %21 = load i32, ptr %7, align 4
  %22 = call ptr @bms_make_singleton(i32 noundef %21)
  %23 = getelementptr inbounds nuw %struct.find_dependent_phvs_context, ptr %8, i32 0, i32 0
  store ptr %22, ptr %23, align 8
  %24 = getelementptr inbounds nuw %struct.find_dependent_phvs_context, ptr %8, i32 0, i32 1
  store i32 0, ptr %24, align 8
  %25 = load ptr, ptr %6, align 8
  %26 = call zeroext i1 @find_dependent_phvs_walker(ptr noundef %25, ptr noundef %8)
  br i1 %26, label %27, label %28

27:                                               ; preds = %20
  store i1 true, ptr %4, align 1
  store i32 1, ptr %11, align 4
  br label %58

28:                                               ; preds = %20
  %29 = load ptr, ptr %6, align 8
  %30 = call ptr @get_relids_in_jointree(ptr noundef %29, i1 noundef zeroext false, i1 noundef zeroext false)
  store ptr %30, ptr %9, align 8
  store i32 -1, ptr %10, align 4
  br label %31

31:                                               ; preds = %56, %28
  %32 = load ptr, ptr %9, align 8
  %33 = load i32, ptr %10, align 4
  %34 = call i32 @bms_next_member(ptr noundef %32, i32 noundef %33)
  store i32 %34, ptr %10, align 4
  %35 = icmp sge i32 %34, 0
  br i1 %35, label %36, label %57

36:                                               ; preds = %31
  call void @llvm.lifetime.start.p0(i64 8, ptr %12) #8
  %37 = load ptr, ptr %5, align 8
  %38 = getelementptr inbounds nuw %struct.PlannerInfo, ptr %37, i32 0, i32 1
  %39 = load ptr, ptr %38, align 8
  %40 = getelementptr inbounds nuw %struct.Query, ptr %39, i32 0, i32 19
  %41 = load ptr, ptr %40, align 8
  %42 = load i32, ptr %10, align 4
  %43 = sub i32 %42, 1
  %44 = call ptr @list_nth(ptr noundef %41, i32 noundef %43)
  store ptr %44, ptr %12, align 8
  %45 = load ptr, ptr %12, align 8
  %46 = getelementptr inbounds nuw %struct.RangeTblEntry, ptr %45, i32 0, i32 31
  %47 = load i8, ptr %46, align 8, !range !7, !noundef !8
  %48 = trunc i8 %47 to i1
  br i1 %48, label %49, label %53

49:                                               ; preds = %36
  %50 = load ptr, ptr %12, align 8
  %51 = call zeroext i1 @range_table_entry_walker_impl(ptr noundef %50, ptr noundef @find_dependent_phvs_walker, ptr noundef %8, i32 noundef 0)
  br i1 %51, label %52, label %53

52:                                               ; preds = %49
  store i1 true, ptr %4, align 1
  store i32 1, ptr %11, align 4
  br label %54

53:                                               ; preds = %49, %36
  store i32 0, ptr %11, align 4
  br label %54

54:                                               ; preds = %53, %52
  call void @llvm.lifetime.end.p0(i64 8, ptr %12) #8
  %55 = load i32, ptr %11, align 4
  switch i32 %55, label %58 [
    i32 0, label %56
  ]

56:                                               ; preds = %54
  br label %31, !llvm.loop !39

57:                                               ; preds = %31
  store i1 false, ptr %4, align 1
  store i32 1, ptr %11, align 4
  br label %58

58:                                               ; preds = %57, %54, %27, %19
  call void @llvm.lifetime.end.p0(i64 4, ptr %10) #8
  call void @llvm.lifetime.end.p0(i64 8, ptr %9) #8
  call void @llvm.lifetime.end.p0(i64 16, ptr %8) #8
  %59 = load i1, ptr %4, align 1
  ret i1 %59
}