; Function Attrs: nounwind uwtable
define internal fastcc noundef zeroext i1 @find_dependent_phvs_in_jointree(ptr noundef readonly captures(none) %0, ptr noundef %1, i32 noundef range(i32 1, 0) %2) unnamed_addr #0 {
  %4 = alloca %struct.find_dependent_phvs_context, align 8
  call void @llvm.lifetime.start.p0(i64 16, ptr nonnull %4) #7
  %5 = getelementptr inbounds nuw i8, ptr %0, i64 16
  %6 = load ptr, ptr %5, align 8
  %7 = getelementptr inbounds nuw i8, ptr %6, i64 136
  %8 = load i32, ptr %7, align 8
  %9 = icmp eq i32 %8, 0
  br i1 %9, label %find_dependent_phvs_walker.exit.thread, label %10

10:                                               ; preds = %3
  %11 = tail call ptr @bms_make_singleton(i32 noundef %2) #7
  store ptr %11, ptr %4, align 8
  %12 = getelementptr inbounds nuw i8, ptr %4, i64 8
  store i32 0, ptr %12, align 8
  %13 = icmp eq ptr %1, null
  br i1 %13, label %find_dependent_phvs_walker.exit.thread15, label %14

14:                                               ; preds = %10
  %15 = load i32, ptr %1, align 4
  %16 = icmp eq i32 %15, 318
  br i1 %16, label %17, label %.thread.i

17:                                               ; preds = %14
  %18 = getelementptr inbounds nuw i8, ptr %1, i64 36
  %19 = load i32, ptr %18, align 4
  %20 = icmp eq i32 %19, 0
  br i1 %20, label %21, label %find_dependent_phvs_walker.exit

21:                                               ; preds = %17
  %22 = getelementptr inbounds nuw i8, ptr %1, i64 16
  %23 = load ptr, ptr %22, align 8
  %24 = tail call zeroext i1 @bms_equal(ptr noundef %11, ptr noundef %23) #7
  br i1 %24, label %find_dependent_phvs_walker.exit.thread, label %..thread_crit_edge.i

..thread_crit_edge.i:                             ; preds = %21
  %.pr.pre.i = load i32, ptr %1, align 4
  br label %.thread.i

.thread.i:                                        ; preds = %..thread_crit_edge.i, %14
  %25 = phi i32 [ %15, %14 ], [ %.pr.pre.i, %..thread_crit_edge.i ]
  %26 = icmp eq i32 %25, 67
  br i1 %26, label %27, label %find_dependent_phvs_walker.exit

27:                                               ; preds = %.thread.i
  store i32 1, ptr %12, align 8
  %28 = call zeroext i1 @query_tree_walker_impl(ptr noundef nonnull %1, ptr noundef nonnull @find_dependent_phvs_walker, ptr noundef nonnull %4, i32 noundef 0) #7
  %29 = load i32, ptr %12, align 8
  %30 = add i32 %29, -1
  store i32 %30, ptr %12, align 8
  br i1 %28, label %find_dependent_phvs_walker.exit.thread, label %find_dependent_phvs_walker.exit.thread15

find_dependent_phvs_walker.exit:                  ; preds = %17, %.thread.i
  %31 = call zeroext i1 @expression_tree_walker_impl(ptr noundef nonnull %1, ptr noundef nonnull @find_dependent_phvs_walker, ptr noundef nonnull %4) #7
  br i1 %31, label %find_dependent_phvs_walker.exit.thread, label %find_dependent_phvs_walker.exit.thread15

find_dependent_phvs_walker.exit.thread15:         ; preds = %10, %27, %find_dependent_phvs_walker.exit
  %32 = call ptr @get_relids_in_jointree(ptr noundef %1, i1 noundef zeroext false, i1 noundef zeroext false)
  %33 = call i32 @bms_next_member(ptr noundef %32, i32 noundef -1) #7
  %34 = icmp sgt i32 %33, -1
  br i1 %34, label %.lr.ph, label %find_dependent_phvs_walker.exit.thread

.lr.ph:                                           ; preds = %find_dependent_phvs_walker.exit.thread15
  %35 = getelementptr inbounds nuw i8, ptr %0, i64 8
  br label %36

36:                                               ; preds = %.lr.ph, %.critedge
  %37 = phi i32 [ %33, %.lr.ph ], [ %51, %.critedge ]
  %38 = load ptr, ptr %35, align 8
  %39 = getelementptr inbounds nuw i8, ptr %38, i64 64
  %40 = load ptr, ptr %39, align 8
  %41 = getelementptr i8, ptr %40, i64 16
  %.val = load ptr, ptr %41, align 8
  %42 = zext nneg i32 %37 to i64
  %43 = getelementptr %union.ListCell, ptr %.val, i64 %42
  %44 = getelementptr i8, ptr %43, i64 -8
  %45 = load ptr, ptr %44, align 8
  %46 = getelementptr inbounds nuw i8, ptr %45, i64 208
  %47 = load i8, ptr %46, align 8, !range !4, !noundef !5
  %48 = trunc nuw i8 %47 to i1
  br i1 %48, label %49, label %.critedge

49:                                               ; preds = %36
  %50 = call zeroext i1 @range_table_entry_walker_impl(ptr noundef nonnull %45, ptr noundef nonnull @find_dependent_phvs_walker, ptr noundef nonnull %4, i32 noundef 0) #7
  br i1 %50, label %find_dependent_phvs_walker.exit.thread, label %.critedge, !llvm.loop !18

.critedge:                                        ; preds = %49, %36
  %51 = call i32 @bms_next_member(ptr noundef %32, i32 noundef %37) #7
  %52 = icmp sgt i32 %51, -1
  br i1 %52, label %36, label %find_dependent_phvs_walker.exit.thread

find_dependent_phvs_walker.exit.thread:           ; preds = %49, %.critedge, %find_dependent_phvs_walker.exit.thread15, %21, %27, %find_dependent_phvs_walker.exit, %3
  %.0 = phi i1 [ false, %3 ], [ true, %find_dependent_phvs_walker.exit ], [ true, %27 ], [ true, %21 ], [ false, %find_dependent_phvs_walker.exit.thread15 ], [ true, %49 ], [ false, %.critedge ]
  call void @llvm.lifetime.end.p0(i64 16, ptr nonnull %4) #7
  ret i1 %.0
}